target datalayout = "e-m:e-p270:32:32-p271:32:32-p272:64:64-i64:64-i128:128-f80:128-n8:16:32:64-S128"
target triple = "x86_64-pc-linux-gnu"

%struct.uv_random_s = type { ptr, i32, [6 x ptr], ptr, i32, ptr, i64, ptr, %struct.uv__work }
%struct.uv__work = type { ptr, ptr, ptr, %struct.uv__queue }
%struct.uv__queue = type { ptr, ptr }
%struct.uv_loop_s = type { ptr, i32, %struct.uv__queue, %union.anon, ptr, i32, i64, i32, %struct.uv__queue, %struct.uv__queue, ptr, i32, i32, %struct.uv__queue, %union.pthread_mutex_t, %struct.uv_async_s, %union.pthread_rwlock_t, ptr, %struct.uv__queue, %struct.uv__queue, %struct.uv__queue, %struct.uv__queue, %struct.uv__queue, ptr, %struct.uv__io_s, i32, %struct.anon, i64, i64, [2 x i32], %struct.uv__io_s, %struct.uv_signal_s, i32, %struct.uv__io_s, ptr, i32 }
%union.anon = type { ptr }
%union.pthread_mutex_t = type { %struct.__pthread_mutex_s }
%struct.__pthread_mutex_s = type { i32, i32, i32, i32, i32, i16, i16, %struct.__pthread_internal_list }
%struct.__pthread_internal_list = type { ptr, ptr }
%struct.uv_async_s = type { ptr, ptr, i32, ptr, %struct.uv__queue, %union.anon.0, ptr, i32, ptr, %struct.uv__queue, i32 }
%union.anon.0 = type { [4 x ptr] }
%union.pthread_rwlock_t = type { %struct.__pthread_rwlock_arch_t }
%struct.__pthread_rwlock_arch_t = type { i32, i32, i32, i32, i32, i32, i32, i32, i8, [7 x i8], i64, i32 }
%struct.anon = type { ptr, i32 }
%struct.uv_signal_s = type { ptr, ptr, i32, ptr, %struct.uv__queue, %union.anon.1, ptr, i32, ptr, i32, %struct.anon.2, i32, i32 }
%union.anon.1 = type { [4 x ptr] }
%struct.anon.2 = type { ptr, ptr, ptr, i32 }
%struct.uv__io_s = type { ptr, %struct.uv__queue, %struct.uv__queue, i32, i32, i32 }

; Function Attrs: nounwind uwtable
define dso_local i32 @uv_random(ptr noundef %0, ptr noundef %1, ptr noundef %2, i64 noundef %3, i32 noundef %4, ptr noundef %5) #0 {
  %7 = alloca i32, align 4
  %8 = alloca ptr, align 8
  %9 = alloca ptr, align 8
  %10 = alloca ptr, align 8
  %11 = alloca i64, align 8
  %12 = alloca i32, align 4
  %13 = alloca ptr, align 8
  store ptr %0, ptr %8, align 8
  store ptr %1, ptr %9, align 8
  store ptr %2, ptr %10, align 8
  store i64 %3, ptr %11, align 8
  store i32 %4, ptr %12, align 4
  store ptr %5, ptr %13, align 8
  %14 = load i64, ptr %11, align 8
  %15 = icmp ugt i64 %14, 2147483647
  br i1 %15, label %16, label %17

16:                                               ; preds = %6
  store i32 -7, ptr %7, align 4
  br label %58

17:                                               ; preds = %6
  %18 = load i32, ptr %12, align 4
  %19 = icmp ne i32 %18, 0
  br i1 %19, label %20, label %21

20:                                               ; preds = %17
  store i32 -22, ptr %7, align 4
  br label %58

21:                                               ; preds = %17
  %22 = load ptr, ptr %13, align 8
  %23 = icmp eq ptr %22, null
  br i1 %23, label %24, label %28

24:                                               ; preds = %21
  %25 = load ptr, ptr %10, align 8
  %26 = load i64, ptr %11, align 8
  %27 = call i32 @uv__random(ptr noundef %25, i64 noundef %26)
  store i32 %27, ptr %7, align 4
  br label %58

28:                                               ; preds = %21
  br label %29

29:                                               ; preds = %28
  br label %30

30:                                               ; preds = %29
  %31 = load ptr, ptr %9, align 8
  %32 = getelementptr inbounds nuw %struct.uv_random_s, ptr %31, i32 0, i32 1
  store i32 10, ptr %32, align 8
  br label %33

33:                                               ; preds = %30
  br label %34

34:                                               ; preds = %33
  %35 = load ptr, ptr %8, align 8
  %36 = getelementptr inbounds nuw %struct.uv_loop_s, ptr %35, i32 0, i32 3
  %37 = load i32, ptr %36, align 8
  %38 = add i32 %37, 1
  store i32 %38, ptr %36, align 8
  br label %39

39:                                               ; preds = %34
  br label %40

40:                                               ; preds = %39
  %41 = load ptr, ptr %8, align 8
  %42 = load ptr, ptr %9, align 8
  %43 = getelementptr inbounds nuw %struct.uv_random_s, ptr %42, i32 0, i32 3
  store ptr %41, ptr %43, align 8
  %44 = load ptr, ptr %9, align 8
  %45 = getelementptr inbounds nuw %struct.uv_random_s, ptr %44, i32 0, i32 4
  store i32 0, ptr %45, align 8
  %46 = load ptr, ptr %13, align 8
  %47 = load ptr, ptr %9, align 8
  %48 = getelementptr inbounds nuw %struct.uv_random_s, ptr %47, i32 0, i32 7
  store ptr %46, ptr %48, align 8
  %49 = load ptr, ptr %10, align 8
  %50 = load ptr, ptr %9, align 8
  %51 = getelementptr inbounds nuw %struct.uv_random_s, ptr %50, i32 0, i32 5
  store ptr %49, ptr %51, align 8
  %52 = load i64, ptr %11, align 8
  %53 = load ptr, ptr %9, align 8
  %54 = getelementptr inbounds nuw %struct.uv_random_s, ptr %53, i32 0, i32 6
  store i64 %52, ptr %54, align 8
  %55 = load ptr, ptr %8, align 8
  %56 = load ptr, ptr %9, align 8
  %57 = getelementptr inbounds nuw %struct.uv_random_s, ptr %56, i32 0, i32 8
  call void @uv__work_submit(ptr noundef %55, ptr noundef %57, i32 noundef 0, ptr noundef @uv__random_work, ptr noundef @uv__random_done)
  store i32 0, ptr %7, align 4
  br label %58

58:                                               ; preds = %40, %24, %20, %16
  %59 = load i32, ptr %7, align 4
  ret i32 %59
}

; Function Attrs: nounwind uwtable
define internal i32 @uv__random(ptr noundef %0, i64 noundef %1) #0 {
  %3 = alloca ptr, align 8
  %4 = alloca i64, align 8
  %5 = alloca i32, align 4
  store ptr %0, ptr %3, align 8
  store i64 %1, ptr %4, align 8
  call void @llvm.lifetime.start.p0(i64 4, ptr %5) #3
  %6 = load ptr, ptr %3, align 8
  %7 = load i64, ptr %4, align 8
  %8 = call i32 @uv__random_getrandom(ptr noundef %6, i64 noundef %7)
  store i32 %8, ptr %5, align 4
  %9 = load i32, ptr %5, align 4
  %10 = icmp eq i32 %9, -38
  br i1 %10, label %11, label %15

11:                                               ; preds = %2
  %12 = load ptr, ptr %3, align 8
  %13 = load i64, ptr %4, align 8
  %14 = call i32 @uv__random_devurandom(ptr noundef %12, i64 noundef %13)
  store i32 %14, ptr %5, align 4
  br label %15

15:                                               ; preds = %11, %2
  %16 = load i32, ptr %5, align 4
  switch i32 %16, label %21 [
    i32 -13, label %17
    i32 -5, label %17
    i32 -40, label %17
    i32 -24, label %17
    i32 -23, label %17
    i32 -2, label %17
    i32 -1, label %17
  ]

17:                                               ; preds = %15, %15, %15, %15, %15, %15, %15
  %18 = load ptr, ptr %3, align 8
  %19 = load i64, ptr %4, align 8
  %20 = call i32 @uv__random_sysctl(ptr noundef %18, i64 noundef %19)
  store i32 %20, ptr %5, align 4
  br label %21

21:                                               ; preds = %15, %17
  %22 = load i32, ptr %5, align 4
  call void @llvm.lifetime.end.p0(i64 4, ptr %5) #3
  ret i32 %22
}

declare void @uv__work_submit(ptr noundef, ptr noundef, i32 noundef, ptr noundef, ptr noundef) #1

; Function Attrs: nounwind uwtable
define internal void @uv__random_work(ptr noundef %0) #0 {
  %2 = alloca ptr, align 8
  %3 = alloca ptr, align 8
  store ptr %0, ptr %2, align 8
  call void @llvm.lifetime.start.p0(i64 8, ptr %3) #3
  %4 = load ptr, ptr %2, align 8
  %5 = getelementptr inbounds i8, ptr %4, i64 -104
  store ptr %5, ptr %3, align 8
  %6 = load ptr, ptr %3, align 8
  %7 = getelementptr inbounds nuw %struct.uv_random_s, ptr %6, i32 0, i32 5
  %8 = load ptr, ptr %7, align 8
  %9 = load ptr, ptr %3, align 8
  %10 = getelementptr inbounds nuw %struct.uv_random_s, ptr %9, i32 0, i32 6
  %11 = load i64, ptr %10, align 8
  %12 = call i32 @uv__random(ptr noundef %8, i64 noundef %11)
  %13 = load ptr, ptr %3, align 8
  %14 = getelementptr inbounds nuw %struct.uv_random_s, ptr %13, i32 0, i32 4
  store i32 %12, ptr %14, align 8
  call void @llvm.lifetime.end.p0(i64 8, ptr %3) #3
  ret void
}

; Function Attrs: nounwind uwtable
define internal void @uv__random_done(ptr noundef %0, i32 noundef %1) #0 {
  %3 = alloca ptr, align 8
  %4 = alloca i32, align 4
  %5 = alloca ptr, align 8
  store ptr %0, ptr %3, align 8
  store i32 %1, ptr %4, align 4
  call void @llvm.lifetime.start.p0(i64 8, ptr %5) #3
  %6 = load ptr, ptr %3, align 8
  %7 = getelementptr inbounds i8, ptr %6, i64 -104
  store ptr %7, ptr %5, align 8
  br label %8

8:                                                ; preds = %2
  %9 = load ptr, ptr %5, align 8
  %10 = getelementptr inbounds nuw %struct.uv_random_s, ptr %9, i32 0, i32 3
  %11 = load ptr, ptr %10, align 8
  %12 = getelementptr inbounds nuw %struct.uv_loop_s, ptr %11, i32 0, i32 3
  %13 = load i32, ptr %12, align 8
  %14 = add i32 %13, -1
  store i32 %14, ptr %12, align 8
  br label %15

15:                                               ; preds = %8
  br label %16

16:                                               ; preds = %15
  %17 = load i32, ptr %4, align 4
  %18 = icmp eq i32 %17, 0
  br i1 %18, label %19, label %23

19:                                               ; preds = %16
  %20 = load ptr, ptr %5, align 8
  %21 = getelementptr inbounds nuw %struct.uv_random_s, ptr %20, i32 0, i32 4
  %22 = load i32, ptr %21, align 8
  store i32 %22, ptr %4, align 4
  br label %23

23:                                               ; preds = %19, %16
  %24 = load ptr, ptr %5, align 8
  %25 = getelementptr inbounds nuw %struct.uv_random_s, ptr %24, i32 0, i32 7
  %26 = load ptr, ptr %25, align 8
  %27 = load ptr, ptr %5, align 8
  %28 = load i32, ptr %4, align 4
  %29 = load ptr, ptr %5, align 8
  %30 = getelementptr inbounds nuw %struct.uv_random_s, ptr %29, i32 0, i32 5
  %31 = load ptr, ptr %30, align 8
  %32 = load ptr, ptr %5, align 8
  %33 = getelementptr inbounds nuw %struct.uv_random_s, ptr %32, i32 0, i32 6
  %34 = load i64, ptr %33, align 8
  call void %26(ptr noundef %27, i32 noundef %28, ptr noundef %31, i64 noundef %34)
  call void @llvm.lifetime.end.p0(i64 8, ptr %5) #3
  ret void
}

; Function Attrs: nocallback nofree nosync nounwind willreturn memory(argmem: readwrite)
declare void @llvm.lifetime.start.p0(i64 immarg, ptr captures(none)) #2

declare i32 @uv__random_getrandom(ptr noundef, i64 noundef) #1

declare i32 @uv__random_devurandom(ptr noundef, i64 noundef) #1

declare i32 @uv__random_sysctl(ptr noundef, i64 noundef) #1

; Function Attrs: nocallback nofree nosync nounwind willreturn memory(argmem: readwrite)
declare void @llvm.lifetime.end.p0(i64 immarg, ptr captures(none)) #2


!llvm.module.flags = !{!0, !1, !2, !3}

!0 = !{i32 1, !"wchar_size", i32 4}
!1 = !{i32 8, !"PIC Level", i32 2}
!2 = !{i32 7, !"PIE Level", i32 2}
!3 = !{i32 7, !"uwtable", i32 2}
